; Function Attrs: mustprogress nounwind uwtable
define internal fastcc void @_ZL13initIRBuilderRN4llvm9IRBuilderINS_14ConstantFolderENS_24IRBuilderDefaultInserterEEEPKNS_10DILocationEPNS_10BasicBlockEPNS_11InstructionE(ptr noundef nonnull align 8 dereferenceable(144) %0, ptr noundef %1, ptr noundef %2, ptr noundef %3) unnamed_addr #0 {
  %5 = alloca i32, align 4
  %6 = alloca ptr, align 8
  %7 = alloca %"class.llvm::DebugLoc", align 8
  %.not = icmp eq ptr %3, null
  br i1 %.not, label %9, label %8

8:                                                ; preds = %4
  tail call void @_ZN4llvm13IRBuilderBase14SetInsertPointEPNS_11InstructionE(ptr noundef nonnull align 8 dereferenceable(128) %0, ptr noundef nonnull %3)
  br label %14

9:                                                ; preds = %4
  %.not9 = icmp eq ptr %2, null
  br i1 %.not9, label %14, label %10

10:                                               ; preds = %9
  %11 = getelementptr inbounds nuw i8, ptr %0, i64 48
  store ptr %2, ptr %11, align 8
  %12 = getelementptr inbounds nuw i8, ptr %2, i64 48
  %13 = getelementptr inbounds nuw i8, ptr %0, i64 56
  store ptr %12, ptr %13, align 8
  %.sroa.22.0..sroa_idx.i = getelementptr inbounds i8, ptr %0, i64 64
  store i16 0, ptr %.sroa.22.0..sroa_idx.i, align 8
  br label %14

14:                                               ; preds = %9, %10, %8
  call void @_ZN4llvm8DebugLocC1EPKNS_10DILocationE(ptr noundef nonnull align 8 dereferenceable(8) %7, ptr noundef %1) #13
  %15 = load ptr, ptr %7, align 8
  call void @llvm.lifetime.start.p0(i64 4, ptr nonnull %5)
  call void @llvm.lifetime.start.p0(i64 8, ptr nonnull %6)
  store i32 0, ptr %5, align 4
  store ptr %15, ptr %6, align 8
  %.not.i.i = icmp eq ptr %15, null
  br i1 %.not.i.i, label %16, label %17

16:                                               ; preds = %14
  call void @_ZN4llvm8erase_ifINS_11SmallVectorISt4pairIjPNS_6MDNodeEELj2EEEZNS_13IRBuilderBase25AddOrRemoveMetadataToCopyEjS4_EUlRKS5_E_EEvRT_T0_(ptr noundef nonnull align 8 dereferenceable(48) %0, i32 0)
  br label %_ZN4llvm13IRBuilderBase23SetCurrentDebugLocationENS_8DebugLocE.exit

17:                                               ; preds = %14
  %18 = load ptr, ptr %0, align 8
  %19 = call noundef i64 @_ZNK4llvm15SmallVectorBaseIjE4sizeEv(ptr noundef nonnull align 8 dereferenceable(16) %0) #13
  %20 = getelementptr inbounds %"struct.std::pair.668", ptr %18, i64 %19
  %.not911.i.i = icmp eq i64 %19, 0
  br i1 %.not911.i.i, label %._crit_edge.i.i, label %.lr.ph.i.i

.lr.ph.i.i:                                       ; preds = %17, %25
  %.012.i.i = phi ptr [ %26, %25 ], [ %18, %17 ]
  %21 = load i32, ptr %.012.i.i, align 8
  %22 = icmp eq i32 %21, 0
  br i1 %22, label %23, label %25

23:                                               ; preds = %.lr.ph.i.i
  %24 = getelementptr inbounds nuw i8, ptr %.012.i.i, i64 8
  store ptr %15, ptr %24, align 8
  br label %_ZN4llvm13IRBuilderBase23SetCurrentDebugLocationENS_8DebugLocE.exit

25:                                               ; preds = %.lr.ph.i.i
  %26 = getelementptr inbounds i8, ptr %.012.i.i, i64 16
  %.not9.i.i = icmp eq ptr %26, %20
  br i1 %.not9.i.i, label %._crit_edge.i.i, label %.lr.ph.i.i

._crit_edge.i.i:                                  ; preds = %25, %17
  %27 = call noundef nonnull align 8 dereferenceable(16) ptr @_ZN4llvm15SmallVectorImplISt4pairIjPNS_6MDNodeEEE12emplace_backIJRjRS3_EEERS4_DpOT_(ptr noundef nonnull align 8 dereferenceable(16) %0, ptr noundef nonnull align 4 dereferenceable(4) %5, ptr noundef nonnull align 8 dereferenceable(8) %6)
  br label %_ZN4llvm13IRBuilderBase23SetCurrentDebugLocationENS_8DebugLocE.exit

_ZN4llvm13IRBuilderBase23SetCurrentDebugLocationENS_8DebugLocE.exit: ; preds = %16, %23, %._crit_edge.i.i
  call void @llvm.lifetime.end.p0(i64 4, ptr nonnull %5)
  call void @llvm.lifetime.end.p0(i64 8, ptr nonnull %6)
  %28 = load ptr, ptr %7, align 8
  %.not.i.i.i.i = icmp eq ptr %28, null
  br i1 %.not.i.i.i.i, label %_ZN4llvm8DebugLocD2Ev.exit, label %29

29:                                               ; preds = %_ZN4llvm13IRBuilderBase23SetCurrentDebugLocationENS_8DebugLocE.exit
  call void @_ZN4llvm16MetadataTracking7untrackEPvRNS_8MetadataE(ptr noundef nonnull %7, ptr noundef nonnull align 4 dereferenceable(8) %28) #13
  br label %_ZN4llvm8DebugLocD2Ev.exit

_ZN4llvm8DebugLocD2Ev.exit:                       ; preds = %_ZN4llvm13IRBuilderBase23SetCurrentDebugLocationENS_8DebugLocE.exit, %29
  ret void
}